Certificate:
    Data:
        Version: 1 (0x0)
        Serial Number: 0 (0x0)
    Signature Algorithm: sha1WithRSAEncryption
        Issuer: C=CA, ST=Quebec, L=Sherbrooke, O=Universite de Sherbrooke, OU=GEGI, CN=autorite/emailAddress=autorite@gegi
        Validity
            Not Before: Jan 14 18:32:03 2022 GMT
            Not After : Jan 14 18:32:03 2023 GMT
        Subject: C=CA, ST=Quebec, O=Universite de Sherbrooke, OU=GEGI, CN=JeremyBelec/emailAddress=belj2434@usherbrooke.ca
        Subject Public Key Info:
            Public Key Algorithm: rsaEncryption
                Public-Key: (512 bit)
                Modulus:
                    00:d0:20:11:a3:35:ed:33:b4:ed:ee:af:60:a9:30:
                    42:ac:61:a9:b8:57:9b:12:f6:67:5c:49:99:95:0a:
                    f1:f3:eb:55:0c:2b:00:1d:19:a2:64:6d:f7:b5:60:
                    ba:57:aa:5d:14:fb:f3:1a:af:ea:2f:89:ac:a4:b9:
                    e3:90:25:62:1b
                Exponent: 65537 (0x10001)
    Signature Algorithm: sha1WithRSAEncryption
         00:36:12:2c:e6:5a:d1:bd:35:c0:68:65:f4:30:ca:68:77:ac:
         f5:5d:0d:bb:67:2f:5f:12:51:0a:86:9c:fe:13:be:a3:54:34:
         f5:a0:d7:a8:08:15:43:ff:7e:5b:e3:6d:07:44:46:66:4a:5c:
         38:46:c6:a2:fe:99:55:f5:5c:e2:24:e3:f0:a4:7a:2c:f1:1c:
         a7:c0:fd:21:95:43:30:42:bf:89:6b:9e:a8:76:11:7d:15:8e:
         38:25:05:97:6a:b4:80:65:b1:a7:0f:56:43:a9:ee:c3:59:1d:
         b0:76:93:68:50:31:39:dd:c7:dd:d7:87:2d:e2:28:6c:c5:7a:
         8c:43:27:a6:88:b8:29:97:72:9c:70:2c:98:32:fa:77:3c:ef:
         cb:37:02:b0:0f:71:fe:45:21:51:e4:da:33:b1:85:c2:dc:43:
         d1:56:09:a8:c3:8a:99:62:ad:32:bd:aa:8f:9a:55:6b:b7:09:
         1b:ff:6e:db:23:c0:4d:13:6e:6f:66:92:47:2f:e9:60:23:11:
         1b:9d:f2:1f:1e:79:8f:67:79:17:d8:11:14:2a:43:d8:65:71:
         2d:99:01:79:eb:2c:d9:36:ae:3c:5c:ae:c1:53:ec:3c:69:ae:
         d8:35:53:6e:de:0e:a8:ca:25:35:46:c0:b9:2d:8f:ee:00:9c:
         e0:26:48:fe
-----BEGIN CERTIFICATE-----
MIIC0jCCAboCAQAwDQYJKoZIhvcNAQEFBQAwgZYxCzAJBgNVBAYTAkNBMQ8wDQYD
VQQIDAZRdWViZWMxEzARBgNVBAcMClNoZXJicm9va2UxITAfBgNVBAoMGFVuaXZl
cnNpdGUgZGUgU2hlcmJyb29rZTENMAsGA1UECwwER0VHSTERMA8GA1UEAwwIYXV0
b3JpdGUxHDAaBgkqhkiG9w0BCQEWDWF1dG9yaXRlQGdlZ2kwHhcNMjIwMTE0MTgz
MjAzWhcNMjMwMTE0MTgzMjAzWjCBjjELMAkGA1UEBhMCQ0ExDzANBgNVBAgMBlF1
ZWJlYzEhMB8GA1UECgwYVW5pdmVyc2l0ZSBkZSBTaGVyYnJvb2tlMQ0wCwYDVQQL
DARHRUdJMRQwEgYDVQQDDAtKZXJlbXlCZWxlYzEmMCQGCSqGSIb3DQEJARYXYmVs
ajI0MzRAdXNoZXJicm9va2UuY2EwXDANBgkqhkiG9w0BAQEFAANLADBIAkEA0CAR
ozXtM7Tt7q9gqTBCrGGpuFebEvZnXEmZlQrx8+tVDCsAHRmiZG33tWC6V6pdFPvz
Gq/qL4mspLnjkCViGwIDAQABMA0GCSqGSIb3DQEBBQUAA4IBAQAANhIs5lrRvTXA
aGX0MMpod6z1XQ27Zy9fElEKhpz+E76jVDT1oNeoCBVD/35b420HREZmSlw4Rsai
/plV9VziJOPwpHos8RynwP0hlUMwQr+Ja56odhF9FY44JQWXarSAZbGnD1ZDqe7D
WR2wdpNoUDE53cfd14ct4ihsxXqMQyemiLgpl3KccCyYMvp3PO/LNwKwD3H+RSFR
5NozsYXC3EPRVgmow4qZYq0yvaqPmlVrtwkb/27bI8BNE25vZpJHL+lgIxEbnfIf
HnmPZ3kX2BEUKkPYZXEtmQF56yzZNq48XK7BU+w8aa7YNVNu3g6oyiU1RsC5LY/u
AJzgJkj+
-----END CERTIFICATE-----
