Certificate:
    Data:
        Version: 1 (0x0)
        Serial Number: 1 (0x1)
    Signature Algorithm: sha1WithRSAEncryption
        Issuer: C=CA, ST=Quebec, L=Sherbrooke, O=Universite de Sherbrooke, OU=GEGI, CN=autorite/emailAddress=autorite@gegi
        Validity
            Not Before: Jan 14 18:33:00 2022 GMT
            Not After : Jan 14 18:33:00 2023 GMT
        Subject: C=CA, ST=Quebec, O=Universite de Sherbrooke, OU=GEGI, CN=JeremyBelec/emailAddress=belj2434@usherbrooke.ca
        Subject Public Key Info:
            Public Key Algorithm: rsaEncryption
                Public-Key: (512 bit)
                Modulus:
                    00:d0:20:11:a3:35:ed:33:b4:ed:ee:af:60:a9:30:
                    42:ac:61:a9:b8:57:9b:12:f6:67:5c:49:99:95:0a:
                    f1:f3:eb:55:0c:2b:00:1d:19:a2:64:6d:f7:b5:60:
                    ba:57:aa:5d:14:fb:f3:1a:af:ea:2f:89:ac:a4:b9:
                    e3:90:25:62:1b
                Exponent: 65537 (0x10001)
    Signature Algorithm: sha1WithRSAEncryption
         92:ac:e6:a7:ae:75:1d:90:dc:f9:f9:0e:f9:c9:4e:8a:67:e7:
         93:d4:2e:65:4f:ba:62:bf:4b:42:0c:90:6c:88:93:ce:b3:2b:
         e0:ee:15:fc:05:7b:f7:51:84:a5:b9:f0:3e:0f:23:cb:5e:04:
         ed:21:88:63:cb:32:a2:7e:51:03:10:40:17:a1:b1:e8:c1:c8:
         f3:0c:da:f5:9f:e5:fe:2e:9a:b2:47:29:39:3c:86:c8:49:b5:
         59:30:1f:ea:5a:87:1d:b8:30:80:12:c4:49:2f:b8:62:ea:3a:
         d9:d0:9a:39:96:8b:b5:c3:98:e0:91:24:ff:66:b4:b2:b4:27:
         4d:c4:dc:05:ef:e6:f1:61:0f:af:e6:0c:2d:45:24:ef:44:78:
         f5:bd:4f:08:0d:ee:57:b2:a6:67:32:4a:73:55:c0:8d:0d:56:
         f6:fa:98:aa:b4:87:05:9d:2d:0e:c5:6c:7c:a6:98:49:ce:08:
         70:e5:f9:95:b4:10:b5:69:0e:cc:67:97:9f:cf:42:98:75:72:
         43:94:a9:5c:bb:77:6d:35:12:35:12:9c:cc:e7:1e:69:0f:f8:
         19:69:42:c0:a0:6b:b0:0a:5f:66:f6:f8:e1:e5:27:b1:10:10:
         1a:7e:34:c7:cd:a4:e7:77:de:e1:1a:6b:9a:22:e3:51:90:22:
         29:65:6b:f8
-----BEGIN CERTIFICATE-----
MIIC0jCCAboCAQEwDQYJKoZIhvcNAQEFBQAwgZYxCzAJBgNVBAYTAkNBMQ8wDQYD
VQQIDAZRdWViZWMxEzARBgNVBAcMClNoZXJicm9va2UxITAfBgNVBAoMGFVuaXZl
cnNpdGUgZGUgU2hlcmJyb29rZTENMAsGA1UECwwER0VHSTERMA8GA1UEAwwIYXV0
b3JpdGUxHDAaBgkqhkiG9w0BCQEWDWF1dG9yaXRlQGdlZ2kwHhcNMjIwMTE0MTgz
MzAwWhcNMjMwMTE0MTgzMzAwWjCBjjELMAkGA1UEBhMCQ0ExDzANBgNVBAgMBlF1
ZWJlYzEhMB8GA1UECgwYVW5pdmVyc2l0ZSBkZSBTaGVyYnJvb2tlMQ0wCwYDVQQL
DARHRUdJMRQwEgYDVQQDDAtKZXJlbXlCZWxlYzEmMCQGCSqGSIb3DQEJARYXYmVs
ajI0MzRAdXNoZXJicm9va2UuY2EwXDANBgkqhkiG9w0BAQEFAANLADBIAkEA0CAR
ozXtM7Tt7q9gqTBCrGGpuFebEvZnXEmZlQrx8+tVDCsAHRmiZG33tWC6V6pdFPvz
Gq/qL4mspLnjkCViGwIDAQABMA0GCSqGSIb3DQEBBQUAA4IBAQCSrOanrnUdkNz5
+Q75yU6KZ+eT1C5lT7piv0tCDJBsiJPOsyvg7hX8BXv3UYSlufA+DyPLXgTtIYhj
yzKiflEDEEAXobHowcjzDNr1n+X+LpqyRyk5PIbISbVZMB/qWocduDCAEsRJL7hi
6jrZ0Jo5lou1w5jgkST/ZrSytCdNxNwF7+bxYQ+v5gwtRSTvRHj1vU8IDe5XsqZn
MkpzVcCNDVb2+piqtIcFnS0OxWx8pphJzghw5fmVtBC1aQ7MZ5efz0KYdXJDlKlc
u3dtNRI1EpzM5x5pD/gZaULAoGuwCl9m9vjh5SexEBAafjTHzaTnd97hGmuaIuNR
kCIpZWv4
-----END CERTIFICATE-----
