Certificate:
    Data:
        Version: 1 (0x0)
        Serial Number: 2 (0x2)
    Signature Algorithm: sha1WithRSAEncryption
        Issuer: C=CA, ST=Quebec, L=Sherbrooke, O=Universite de Sherbrooke, OU=GEGI, CN=autorite/emailAddress=autorite@gegi
        Validity
            Not Before: Jan 16 15:44:38 2022 GMT
            Not After : Jan 16 15:44:38 2023 GMT
        Subject: C=CA, ST=Quebec, O=Universite de Sherbrooke, OU=GEGI, CN=Certificat_APP1/emailAddress=belj2434@usherbrooke.ca
        Subject Public Key Info:
            Public Key Algorithm: rsaEncryption
                Public-Key: (512 bit)
                Modulus:
                    00:bf:34:9c:0e:eb:90:a9:57:04:f9:61:ee:78:1f:
                    81:e4:35:96:35:c3:fb:8c:3c:f5:60:fb:50:59:d3:
                    dc:2a:2b:cd:ef:95:b2:34:28:ad:9c:08:fa:58:56:
                    73:ea:a9:22:38:89:39:0e:b0:b0:72:74:e8:52:61:
                    94:0f:8b:60:67
                Exponent: 65537 (0x10001)
    Signature Algorithm: sha1WithRSAEncryption
         c4:94:46:8c:e5:46:2c:6e:58:e4:9e:bf:e3:cd:ea:ef:cb:c2:
         02:07:88:ed:af:00:bb:49:6a:2e:a1:60:61:e1:e8:5c:6c:0a:
         79:73:40:c6:38:17:e2:1e:03:4a:39:28:7a:80:3e:db:6e:18:
         aa:43:d1:6b:32:34:21:c4:02:55:52:bd:10:62:dd:23:6b:dc:
         70:e0:4f:0b:fb:af:ac:e2:29:52:20:27:25:b3:67:9e:80:2f:
         61:39:7d:b0:c1:df:cb:0f:7b:71:5c:ec:76:94:fb:b3:f8:6b:
         5e:29:be:5f:ec:be:0b:13:b9:77:4c:d5:8a:6c:99:52:ca:50:
         49:54:65:29:1a:6f:08:c2:a8:a7:8d:aa:0e:95:f6:f5:b6:be:
         c2:d8:37:96:7a:46:f2:e7:94:c9:00:03:fc:41:bc:0a:89:22:
         0e:21:c9:46:08:7a:68:73:d5:c5:85:ec:14:50:d1:f1:8c:13:
         37:db:16:0d:27:a9:db:79:e0:11:41:80:9b:32:c5:b0:8c:47:
         68:0c:c0:72:39:c1:f8:15:be:3d:ed:e5:47:77:bd:90:42:6d:
         8a:05:47:c6:1d:ec:19:d4:f8:4b:9c:e3:24:5d:09:fc:8f:c5:
         64:a3:32:99:eb:43:76:39:18:e3:28:8b:ea:8a:c2:0e:b4:e0:
         c7:c9:5a:55
-----BEGIN CERTIFICATE-----
MIIC1jCCAb4CAQIwDQYJKoZIhvcNAQEFBQAwgZYxCzAJBgNVBAYTAkNBMQ8wDQYD
VQQIDAZRdWViZWMxEzARBgNVBAcMClNoZXJicm9va2UxITAfBgNVBAoMGFVuaXZl
cnNpdGUgZGUgU2hlcmJyb29rZTENMAsGA1UECwwER0VHSTERMA8GA1UEAwwIYXV0
b3JpdGUxHDAaBgkqhkiG9w0BCQEWDWF1dG9yaXRlQGdlZ2kwHhcNMjIwMTE2MTU0
NDM4WhcNMjMwMTE2MTU0NDM4WjCBkjELMAkGA1UEBhMCQ0ExDzANBgNVBAgMBlF1
ZWJlYzEhMB8GA1UECgwYVW5pdmVyc2l0ZSBkZSBTaGVyYnJvb2tlMQ0wCwYDVQQL
DARHRUdJMRgwFgYDVQQDDA9DZXJ0aWZpY2F0X0FQUDExJjAkBgkqhkiG9w0BCQEW
F2JlbGoyNDM0QHVzaGVyYnJvb2tlLmNhMFwwDQYJKoZIhvcNAQEBBQADSwAwSAJB
AL80nA7rkKlXBPlh7ngfgeQ1ljXD+4w89WD7UFnT3Corze+VsjQorZwI+lhWc+qp
IjiJOQ6wsHJ06FJhlA+LYGcCAwEAATANBgkqhkiG9w0BAQUFAAOCAQEAxJRGjOVG
LG5Y5J6/483q78vCAgeI7a8Au0lqLqFgYeHoXGwKeXNAxjgX4h4DSjkoeoA+224Y
qkPRazI0IcQCVVK9EGLdI2vccOBPC/uvrOIpUiAnJbNnnoAvYTl9sMHfyw97cVzs
dpT7s/hrXim+X+y+CxO5d0zVimyZUspQSVRlKRpvCMKop42qDpX29ba+wtg3lnpG
8ueUyQAD/EG8CokiDiHJRgh6aHPVxYXsFFDR8YwTN9sWDSep23ngEUGAmzLFsIxH
aAzAcjnB+BW+Pe3lR3e9kEJtigVHxh3sGdT4S5zjJF0J/I/FZKMymetDdjkY4yiL
6orCDrTgx8laVQ==
-----END CERTIFICATE-----
