Certificate:
    Data:
        Version: 1 (0x0)
        Serial Number: 3 (0x3)
    Signature Algorithm: sha1WithRSAEncryption
        Issuer: C=CA, ST=Quebec, L=Sherbrooke, O=Universite de Sherbrooke, OU=GEGI, CN=autorite/emailAddress=autorite@gegi
        Validity
            Not Before: Jan 16 15:48:16 2022 GMT
            Not After : Jan 16 15:48:16 2023 GMT
        Subject: C=CA, ST=Quebec, O=Universite de Sherbrooke, OU=GEGI, CN=CertificatAPP1/emailAddress=belj2434@usherbrooke.ca
        Subject Public Key Info:
            Public Key Algorithm: rsaEncryption
                Public-Key: (512 bit)
                Modulus:
                    00:cc:fd:21:59:8b:c0:40:d7:c0:1a:85:0a:ee:ac:
                    95:a6:dd:d0:d8:76:5d:c7:bb:45:f5:f9:45:a2:0e:
                    66:b1:d0:42:42:4d:9e:40:3d:39:b4:b5:d1:ab:a6:
                    0d:fc:e0:54:a0:d3:7b:29:68:bf:96:01:ef:72:87:
                    c1:89:4a:cd:91
                Exponent: 65537 (0x10001)
    Signature Algorithm: sha1WithRSAEncryption
         0f:22:48:5b:3e:aa:17:08:f5:4a:7b:b7:36:c5:e9:73:50:45:
         eb:11:ac:39:94:12:da:f9:1a:91:6a:f8:34:e8:43:36:9e:d7:
         ad:cc:61:04:24:17:d4:e5:c1:86:03:79:d4:1d:9d:00:01:4b:
         29:ca:df:77:62:c6:07:28:18:24:a8:78:d9:05:c2:be:45:dc:
         f1:c2:b1:2e:86:6f:f6:19:02:b2:5a:f5:e8:61:85:6e:71:6e:
         b1:bb:42:b6:a4:14:fb:9e:b8:de:3c:8a:0a:03:66:1e:2f:50:
         a0:52:9d:0e:a2:f6:18:21:6c:86:75:7d:e7:8c:b4:07:57:20:
         36:08:62:4b:f7:40:5f:99:ad:15:d5:59:fb:ec:3a:05:0b:2e:
         ed:c0:5a:8d:12:9e:9e:d5:1a:01:f2:79:5f:cd:70:74:60:d8:
         7a:04:c3:37:37:65:92:33:2a:d8:1b:95:27:59:b7:65:e5:4c:
         7c:94:4e:95:f7:60:8a:3e:6d:d6:18:90:93:8a:c7:eb:15:05:
         b3:f5:1e:b3:b3:52:b0:be:98:40:06:56:f1:05:ec:e8:ad:59:
         da:d7:f9:1e:91:3d:52:a1:cf:73:fc:18:01:06:4c:bc:43:27:
         50:06:c4:7f:e1:72:fa:8e:6e:94:7c:e5:f9:56:ce:9d:be:76:
         ea:05:4d:f0
-----BEGIN CERTIFICATE-----
MIIC1TCCAb0CAQMwDQYJKoZIhvcNAQEFBQAwgZYxCzAJBgNVBAYTAkNBMQ8wDQYD
VQQIDAZRdWViZWMxEzARBgNVBAcMClNoZXJicm9va2UxITAfBgNVBAoMGFVuaXZl
cnNpdGUgZGUgU2hlcmJyb29rZTENMAsGA1UECwwER0VHSTERMA8GA1UEAwwIYXV0
b3JpdGUxHDAaBgkqhkiG9w0BCQEWDWF1dG9yaXRlQGdlZ2kwHhcNMjIwMTE2MTU0
ODE2WhcNMjMwMTE2MTU0ODE2WjCBkTELMAkGA1UEBhMCQ0ExDzANBgNVBAgMBlF1
ZWJlYzEhMB8GA1UECgwYVW5pdmVyc2l0ZSBkZSBTaGVyYnJvb2tlMQ0wCwYDVQQL
DARHRUdJMRcwFQYDVQQDDA5DZXJ0aWZpY2F0QVBQMTEmMCQGCSqGSIb3DQEJARYX
YmVsajI0MzRAdXNoZXJicm9va2UuY2EwXDANBgkqhkiG9w0BAQEFAANLADBIAkEA
zP0hWYvAQNfAGoUK7qyVpt3Q2HZdx7tF9flFog5msdBCQk2eQD05tLXRq6YN/OBU
oNN7KWi/lgHvcofBiUrNkQIDAQABMA0GCSqGSIb3DQEBBQUAA4IBAQAPIkhbPqoX
CPVKe7c2xelzUEXrEaw5lBLa+RqRavg06EM2ntetzGEEJBfU5cGGA3nUHZ0AAUsp
yt93YsYHKBgkqHjZBcK+RdzxwrEuhm/2GQKyWvXoYYVucW6xu0K2pBT7nrjePIoK
A2YeL1CgUp0OovYYIWyGdX3njLQHVyA2CGJL90Bfma0V1Vn77DoFCy7twFqNEp6e
1RoB8nlfzXB0YNh6BMM3N2WSMyrYG5UnWbdl5Ux8lE6V92CKPm3WGJCTisfrFQWz
9R6zs1KwvphABlbxBezorVna1/kekT1Soc9z/BgBBky8QydQBsR/4XL6jm6UfOX5
Vs6dvnbqBU3w
-----END CERTIFICATE-----
