Certificate:
    Data:
        Version: 1 (0x0)
        Serial Number: 4 (0x4)
    Signature Algorithm: sha1WithRSAEncryption
        Issuer: C=CA, ST=Quebec, L=Sherbrooke, O=Universite de Sherbrooke, OU=GEGI, CN=autorite/emailAddress=autorite@gegi
        Validity
            Not Before: Jan 16 15:49:56 2022 GMT
            Not After : Jan 16 15:49:56 2023 GMT
        Subject: C=CA, ST=Quebec, O=Universite de Sherbrooke, OU=GEGI, CN=Certificat_APP1_Server/emailAddress=belj2434@usherbrooke.ca
        Subject Public Key Info:
            Public Key Algorithm: rsaEncryption
                Public-Key: (512 bit)
                Modulus:
                    00:ca:84:97:7b:f2:da:c7:6c:bb:5d:15:9f:9b:19:
                    a8:2d:53:de:27:45:59:da:7b:ae:f3:a4:1c:49:1b:
                    80:cb:1b:f9:d0:b6:b4:b4:71:b1:f7:da:f9:02:aa:
                    a6:8b:41:24:dd:3a:c6:6f:d4:f5:5d:b3:3f:bb:44:
                    64:0f:e5:ae:c9
                Exponent: 65537 (0x10001)
    Signature Algorithm: sha1WithRSAEncryption
         70:ac:ab:ca:28:1b:ad:c8:26:e2:eb:e6:5e:86:e6:e0:19:1b:
         8d:50:5d:e6:6b:32:e8:ca:11:1a:57:04:0d:e0:96:4d:14:b4:
         fb:52:c7:41:26:44:04:03:4c:64:0a:47:4f:2b:ad:e3:26:35:
         2e:83:2e:9f:f5:67:f7:fc:84:2d:19:a9:ce:9c:65:08:f7:78:
         c0:d8:7e:ed:02:6c:df:bc:f0:eb:fb:b5:73:23:fb:cb:7c:a9:
         24:26:26:e8:90:00:60:04:e8:52:a2:00:af:33:73:c9:95:2b:
         1f:5e:9c:4d:83:ad:f8:b0:ea:9e:b1:b0:de:83:d8:a4:bb:5a:
         22:3a:ed:54:41:ac:06:9c:93:c4:31:a5:4c:a3:73:13:92:74:
         db:b2:24:77:54:43:0e:d7:ee:7c:b5:ee:c0:f0:50:50:d4:98:
         b9:31:2f:63:35:92:24:de:9f:ff:f8:6e:1d:15:e3:48:c9:f1:
         71:9a:30:68:17:02:d2:c1:3f:f9:f0:bc:ab:ae:cf:85:51:1f:
         95:fa:74:4e:d8:53:0e:8b:1e:b7:07:b3:bf:91:ab:e8:7b:b8:
         dc:43:2f:21:4f:ff:f0:a3:0d:ee:da:c5:e3:18:d6:24:d5:69:
         6f:89:56:60:cd:7e:67:86:60:ca:16:00:91:3e:6f:62:b7:34:
         a4:d6:0e:a0
-----BEGIN CERTIFICATE-----
MIIC3TCCAcUCAQQwDQYJKoZIhvcNAQEFBQAwgZYxCzAJBgNVBAYTAkNBMQ8wDQYD
VQQIDAZRdWViZWMxEzARBgNVBAcMClNoZXJicm9va2UxITAfBgNVBAoMGFVuaXZl
cnNpdGUgZGUgU2hlcmJyb29rZTENMAsGA1UECwwER0VHSTERMA8GA1UEAwwIYXV0
b3JpdGUxHDAaBgkqhkiG9w0BCQEWDWF1dG9yaXRlQGdlZ2kwHhcNMjIwMTE2MTU0
OTU2WhcNMjMwMTE2MTU0OTU2WjCBmTELMAkGA1UEBhMCQ0ExDzANBgNVBAgMBlF1
ZWJlYzEhMB8GA1UECgwYVW5pdmVyc2l0ZSBkZSBTaGVyYnJvb2tlMQ0wCwYDVQQL
DARHRUdJMR8wHQYDVQQDDBZDZXJ0aWZpY2F0X0FQUDFfU2VydmVyMSYwJAYJKoZI
hvcNAQkBFhdiZWxqMjQzNEB1c2hlcmJyb29rZS5jYTBcMA0GCSqGSIb3DQEBAQUA
A0sAMEgCQQDKhJd78trHbLtdFZ+bGagtU94nRVnae67zpBxJG4DLG/nQtrS0cbH3
2vkCqqaLQSTdOsZv1PVdsz+7RGQP5a7JAgMBAAEwDQYJKoZIhvcNAQEFBQADggEB
AHCsq8ooG63IJuLr5l6G5uAZG41QXeZrMujKERpXBA3glk0UtPtSx0EmRAQDTGQK
R08rreMmNS6DLp/1Z/f8hC0Zqc6cZQj3eMDYfu0CbN+88Ov7tXMj+8t8qSQmJuiQ
AGAE6FKiAK8zc8mVKx9enE2Drfiw6p6xsN6D2KS7WiI67VRBrAack8QxpUyjcxOS
dNuyJHdUQw7X7ny17sDwUFDUmLkxL2M1kiTen//4bh0V40jJ8XGaMGgXAtLBP/nw
vKuuz4VRH5X6dE7YUw6LHrcHs7+Rq+h7uNxDLyFP//CjDe7axeMY1iTVaW+JVmDN
fmeGYMoWAJE+b2K3NKTWDqA=
-----END CERTIFICATE-----
