Certificate:
    Data:
        Version: 1 (0x0)
        Serial Number: 5 (0x5)
    Signature Algorithm: sha1WithRSAEncryption
        Issuer: C=CA, ST=Quebec, L=Sherbrooke, O=Universite de Sherbrooke, OU=GEGI, CN=autorite/emailAddress=autorite@gegi
        Validity
            Not Before: Jan 16 15:54:23 2022 GMT
            Not After : Jan 16 15:54:23 2023 GMT
        Subject: C=CA, ST=Quebec, O=Universite de Sherbrooke, OU=GEGI, CN=Certificat_APP1_Server/emailAddress=belj2434@usherbrooke.ca
        Subject Public Key Info:
            Public Key Algorithm: rsaEncryption
                Public-Key: (2048 bit)
                Modulus:
                    00:bc:f9:5e:20:92:92:dd:eb:05:15:61:a7:00:4a:
                    60:1c:20:6e:8b:ae:9b:c0:97:6e:55:65:14:20:35:
                    bb:9d:42:8f:e8:26:d3:f4:c3:51:10:3f:43:20:f5:
                    dd:cb:47:b0:e5:63:41:94:aa:42:20:8f:39:1d:38:
                    f5:f9:1a:16:40:c0:86:89:ca:6a:3a:5e:5d:cb:cf:
                    3e:76:be:d6:0e:3c:8f:50:d0:fc:62:93:ff:df:ee:
                    bb:6f:f4:d1:93:a8:ad:7b:e6:05:f6:99:68:15:db:
                    87:9d:27:62:5a:8d:93:30:7a:3d:39:3a:ee:a0:1b:
                    2e:42:73:d2:5b:24:43:66:83:28:61:0b:24:67:d7:
                    d4:6a:ca:c1:17:b6:19:1a:6d:06:cb:87:8a:f4:b6:
                    60:b6:33:a6:bb:c3:26:56:d1:cd:c4:fa:0d:c6:44:
                    c2:3c:59:13:70:8a:92:db:9d:bd:79:59:0c:5f:9c:
                    d1:0a:97:24:88:bf:d7:57:0b:73:50:0e:44:96:fb:
                    7f:58:74:c9:80:c9:17:19:36:f3:40:00:39:ac:ff:
                    99:17:c4:45:4f:e9:59:43:9c:c4:a4:46:9e:22:af:
                    16:e2:47:e6:66:10:1c:b1:62:0d:f5:b8:71:29:41:
                    4a:39:ad:0c:dc:b7:bc:87:94:50:b8:70:d3:fe:22:
                    80:55
                Exponent: 65537 (0x10001)
    Signature Algorithm: sha1WithRSAEncryption
         22:20:24:d3:30:d8:4f:aa:fe:d2:39:60:71:eb:72:09:b5:d2:
         ab:b1:36:ce:0b:d6:f5:fe:ce:ca:99:db:3d:99:02:74:f5:7e:
         ad:e9:de:17:28:82:e8:62:a1:e8:37:58:7a:e4:26:89:e4:2a:
         d8:47:4d:7f:a1:a3:f9:04:b3:6b:a3:50:21:82:a4:e0:00:1b:
         50:37:b6:b3:03:d4:0c:16:b9:b2:99:1b:d9:b6:d8:3a:14:42:
         cd:1e:9b:a8:61:15:b3:40:d7:a9:4c:16:d5:ab:f9:18:42:cc:
         10:48:cc:0b:aa:c0:82:56:e0:24:7d:85:1b:00:1e:4b:85:17:
         1b:fc:4b:82:86:1d:80:5a:f7:1c:32:d2:69:25:42:9b:18:e7:
         e0:ee:60:03:38:81:b3:5c:02:62:81:e6:ce:b2:73:62:81:af:
         50:34:ac:37:ab:c8:82:df:7b:77:3c:b5:45:8b:58:33:7f:61:
         c3:a3:dd:97:84:cf:ec:76:65:ef:17:25:e0:f1:e5:4e:65:48:
         f4:ba:0a:3a:58:10:92:f1:b1:5a:a9:7f:11:af:ae:34:fc:2b:
         32:eb:36:98:c3:f4:d0:1f:50:6a:bc:79:e1:a4:54:88:98:94:
         41:8f:e1:b2:02:64:4d:2f:b6:4d:4f:b9:9b:b5:c6:dd:19:42:
         07:a8:b9:54
-----BEGIN CERTIFICATE-----
MIIDpTCCAo0CAQUwDQYJKoZIhvcNAQEFBQAwgZYxCzAJBgNVBAYTAkNBMQ8wDQYD
VQQIDAZRdWViZWMxEzARBgNVBAcMClNoZXJicm9va2UxITAfBgNVBAoMGFVuaXZl
cnNpdGUgZGUgU2hlcmJyb29rZTENMAsGA1UECwwER0VHSTERMA8GA1UEAwwIYXV0
b3JpdGUxHDAaBgkqhkiG9w0BCQEWDWF1dG9yaXRlQGdlZ2kwHhcNMjIwMTE2MTU1
NDIzWhcNMjMwMTE2MTU1NDIzWjCBmTELMAkGA1UEBhMCQ0ExDzANBgNVBAgMBlF1
ZWJlYzEhMB8GA1UECgwYVW5pdmVyc2l0ZSBkZSBTaGVyYnJvb2tlMQ0wCwYDVQQL
DARHRUdJMR8wHQYDVQQDDBZDZXJ0aWZpY2F0X0FQUDFfU2VydmVyMSYwJAYJKoZI
hvcNAQkBFhdiZWxqMjQzNEB1c2hlcmJyb29rZS5jYTCCASIwDQYJKoZIhvcNAQEB
BQADggEPADCCAQoCggEBALz5XiCSkt3rBRVhpwBKYBwgbouum8CXblVlFCA1u51C
j+gm0/TDURA/QyD13ctHsOVjQZSqQiCPOR049fkaFkDAhonKajpeXcvPPna+1g48
j1DQ/GKT/9/uu2/00ZOorXvmBfaZaBXbh50nYlqNkzB6PTk67qAbLkJz0lskQ2aD
KGELJGfX1GrKwRe2GRptBsuHivS2YLYzprvDJlbRzcT6DcZEwjxZE3CKktudvXlZ
DF+c0QqXJIi/11cLc1AORJb7f1h0yYDJFxk280AAOaz/mRfERU/pWUOcxKRGniKv
FuJH5mYQHLFiDfW4cSlBSjmtDNy3vIeUULhw0/4igFUCAwEAATANBgkqhkiG9w0B
AQUFAAOCAQEAIiAk0zDYT6r+0jlgcetyCbXSq7E2zgvW9f7OypnbPZkCdPV+rene
FyiC6GKh6DdYeuQmieQq2EdNf6Gj+QSza6NQIYKk4AAbUDe2swPUDBa5spkb2bbY
OhRCzR6bqGEVs0DXqUwW1av5GELMEEjMC6rAglbgJH2FGwAeS4UXG/xLgoYdgFr3
HDLSaSVCmxjn4O5gAziBs1wCYoHmzrJzYoGvUDSsN6vIgt97dzy1RYtYM39hw6Pd
l4TP7HZl7xcl4PHlTmVI9LoKOlgQkvGxWql/Ea+uNPwrMus2mMP00B9Qarx54aRU
iJiUQY/hsgJkTS+2TU+5m7XG3RlCB6i5VA==
-----END CERTIFICATE-----
