Certificate:
    Data:
        Version: 1 (0x0)
        Serial Number: 6 (0x6)
    Signature Algorithm: sha1WithRSAEncryption
        Issuer: C=CA, ST=Quebec, L=Sherbrooke, O=Universite de Sherbrooke, OU=GEGI, CN=autorite/emailAddress=autorite@gegi
        Validity
            Not Before: Jan 16 15:56:25 2022 GMT
            Not After : Jan 16 15:56:25 2023 GMT
        Subject: C=CA, ST=Quebec, O=Universite de Sherbrooke, OU=GEGI, CN=Certificat_APP1_Client/emailAddress=belj2434@usherbrooke.ca
        Subject Public Key Info:
            Public Key Algorithm: rsaEncryption
                Public-Key: (2048 bit)
                Modulus:
                    00:af:90:1e:72:91:e7:33:52:b9:c3:57:88:c4:81:
                    3c:4a:bf:d6:11:66:31:6c:76:8c:3b:ba:c5:df:39:
                    f6:b0:60:88:36:ef:13:fa:d6:32:a1:ab:b9:29:2b:
                    6e:8c:0b:bd:2a:d0:31:3d:33:1c:23:aa:2b:3f:31:
                    b0:8d:bb:1f:33:62:d1:2b:b2:dd:23:b1:dc:01:01:
                    dd:7c:28:0e:60:f2:63:cb:db:c6:32:3a:49:49:25:
                    4d:21:43:2c:37:26:a9:8f:dc:7b:80:af:eb:cf:e8:
                    a6:22:fe:55:19:83:ff:f8:30:25:cf:9a:e8:cb:b5:
                    04:fd:f6:aa:3e:a3:03:fa:a8:99:cd:91:7b:2e:1e:
                    a1:77:6d:10:8d:24:24:7a:77:59:aa:0e:57:09:0e:
                    e0:06:48:57:50:b8:da:26:92:22:1a:46:4b:44:89:
                    f9:c2:50:6b:77:6d:9c:7c:1e:5f:bb:07:21:0c:72:
                    1d:80:45:11:89:c0:5d:6a:68:3d:f2:0e:7e:87:b8:
                    2f:28:ae:91:db:bf:00:ee:43:44:a9:98:d2:bb:ad:
                    4c:5f:54:f1:c4:ad:4b:67:17:9c:ff:35:62:f6:8f:
                    05:51:45:91:2d:62:e0:4b:42:70:80:01:d7:57:b9:
                    fb:63:b2:0e:5c:ca:27:38:d5:c3:63:00:c2:f5:ed:
                    ae:9f
                Exponent: 65537 (0x10001)
    Signature Algorithm: sha1WithRSAEncryption
         cb:cc:7b:41:16:a8:15:88:a0:fc:4b:d1:3d:c3:a3:d9:82:27:
         b4:19:53:f9:92:d5:77:f2:88:17:ed:1c:8d:77:d4:0f:59:a9:
         4c:66:cc:21:17:4f:34:9c:5d:9d:86:a0:cc:b0:2d:a1:21:8a:
         cf:54:b8:3e:c7:72:f0:b9:18:00:23:1b:1a:ab:fc:ae:6e:0c:
         3a:e7:0a:27:14:07:7b:9e:92:b3:6b:e7:95:15:1e:79:68:59:
         7e:ab:7f:ca:64:16:82:53:b6:5c:1b:1e:eb:d3:67:43:6d:f5:
         e1:66:c7:9c:2c:f3:e7:4d:0d:51:4f:39:cb:a8:7b:a4:46:44:
         9d:db:e7:7c:64:09:83:70:c0:12:3f:1d:59:7a:16:af:52:f0:
         1b:5f:19:82:d9:22:25:83:34:62:d1:98:cd:32:85:f6:49:bb:
         5c:d5:31:57:6d:d0:28:b6:fe:fc:55:f4:cd:c8:c2:42:13:dd:
         8f:c7:ef:23:15:81:d6:99:5a:e7:51:94:39:ac:7f:2f:04:ae:
         49:2f:12:a9:d7:d5:9e:5b:9d:76:b5:1a:3f:fe:b1:61:d9:cc:
         61:30:4c:f7:34:2b:67:61:97:03:d0:bc:b8:06:5b:42:00:ae:
         bd:38:82:9a:4a:1a:79:fc:81:eb:4c:ed:ae:5c:f0:a2:ed:40:
         13:2a:0e:91
-----BEGIN CERTIFICATE-----
MIIDpTCCAo0CAQYwDQYJKoZIhvcNAQEFBQAwgZYxCzAJBgNVBAYTAkNBMQ8wDQYD
VQQIDAZRdWViZWMxEzARBgNVBAcMClNoZXJicm9va2UxITAfBgNVBAoMGFVuaXZl
cnNpdGUgZGUgU2hlcmJyb29rZTENMAsGA1UECwwER0VHSTERMA8GA1UEAwwIYXV0
b3JpdGUxHDAaBgkqhkiG9w0BCQEWDWF1dG9yaXRlQGdlZ2kwHhcNMjIwMTE2MTU1
NjI1WhcNMjMwMTE2MTU1NjI1WjCBmTELMAkGA1UEBhMCQ0ExDzANBgNVBAgMBlF1
ZWJlYzEhMB8GA1UECgwYVW5pdmVyc2l0ZSBkZSBTaGVyYnJvb2tlMQ0wCwYDVQQL
DARHRUdJMR8wHQYDVQQDDBZDZXJ0aWZpY2F0X0FQUDFfQ2xpZW50MSYwJAYJKoZI
hvcNAQkBFhdiZWxqMjQzNEB1c2hlcmJyb29rZS5jYTCCASIwDQYJKoZIhvcNAQEB
BQADggEPADCCAQoCggEBAK+QHnKR5zNSucNXiMSBPEq/1hFmMWx2jDu6xd859rBg
iDbvE/rWMqGruSkrbowLvSrQMT0zHCOqKz8xsI27HzNi0Suy3SOx3AEB3XwoDmDy
Y8vbxjI6SUklTSFDLDcmqY/ce4Cv68/opiL+VRmD//gwJc+a6Mu1BP32qj6jA/qo
mc2Rey4eoXdtEI0kJHp3WaoOVwkO4AZIV1C42iaSIhpGS0SJ+cJQa3dtnHweX7sH
IQxyHYBFEYnAXWpoPfIOfoe4Lyiukdu/AO5DRKmY0rutTF9U8cStS2cXnP81YvaP
BVFFkS1i4EtCcIAB11e5+2OyDlzKJzjVw2MAwvXtrp8CAwEAATANBgkqhkiG9w0B
AQUFAAOCAQEAy8x7QRaoFYig/EvRPcOj2YIntBlT+ZLVd/KIF+0cjXfUD1mpTGbM
IRdPNJxdnYagzLAtoSGKz1S4Psdy8LkYACMbGqv8rm4MOucKJxQHe56Ss2vnlRUe
eWhZfqt/ymQWglO2XBse69NnQ2314WbHnCzz500NUU85y6h7pEZEndvnfGQJg3DA
Ej8dWXoWr1LwG18ZgtkiJYM0YtGYzTKF9km7XNUxV23QKLb+/FX0zcjCQhPdj8fv
IxWB1pla51GUOax/LwSuSS8SqdfVnluddrUaP/6xYdnMYTBM9zQrZ2GXA9C8uAZb
QgCuvTiCmkoaefyB60ztrlzwou1AEyoOkQ==
-----END CERTIFICATE-----
