Certificate:
    Data:
        Version: 1 (0x0)
        Serial Number: 7 (0x7)
    Signature Algorithm: sha1WithRSAEncryption
        Issuer: C=CA, ST=Quebec, L=Sherbrooke, O=Universite de Sherbrooke, OU=GEGI, CN=autorite/emailAddress=autorite@gegi
        Validity
            Not Before: Jan 16 16:04:17 2022 GMT
            Not After : Jan 16 16:04:17 2023 GMT
        Subject: C=CA, ST=Quebec, O=Universite de Sherbrooke, OU=GEGI, CN=localhost/emailAddress=belj2434@usherbrooke.ca
        Subject Public Key Info:
            Public Key Algorithm: rsaEncryption
                Public-Key: (2048 bit)
                Modulus:
                    00:9a:ed:14:4a:db:8e:68:d3:a6:e4:81:43:b3:af:
                    36:b1:69:6f:21:b1:d7:56:08:79:65:06:d2:3c:3e:
                    b8:01:d4:b1:34:c9:b6:cf:47:f8:16:b3:51:08:49:
                    8f:97:cb:2e:07:ff:d9:e3:27:c1:8f:56:61:3c:57:
                    ae:9d:f2:60:8e:a2:19:e5:1f:25:53:08:84:8b:73:
                    fc:c9:6c:f2:75:30:66:27:10:e8:26:17:2a:91:ce:
                    a9:32:26:f8:ad:f4:53:a2:d6:74:ad:07:18:2e:8a:
                    b3:c0:04:f6:62:4a:dc:17:ae:47:f3:37:77:ba:01:
                    69:43:fc:3d:c2:6e:99:ca:88:13:a6:42:7d:37:34:
                    5a:71:85:f4:cc:b2:25:27:c6:35:b5:9c:09:f8:10:
                    4c:1f:22:5d:c1:ce:72:6e:2f:e1:bd:9b:e4:ee:3a:
                    fc:b9:ac:50:d2:f7:a7:d0:99:b9:5e:11:70:59:c9:
                    ac:9d:68:46:04:5b:05:ff:1b:8d:e2:3c:0c:e2:be:
                    04:55:e8:cc:e1:c3:b3:e7:25:e8:20:7f:2b:d1:2b:
                    17:e1:49:e9:91:30:63:da:e0:6c:35:8e:34:a5:5e:
                    2d:68:b9:45:d7:b8:b6:64:76:ca:7f:cc:32:ec:55:
                    25:f2:44:a1:a5:1f:16:c7:a9:30:97:5d:0a:ad:b0:
                    f4:cd
                Exponent: 65537 (0x10001)
    Signature Algorithm: sha1WithRSAEncryption
         79:b2:1e:0a:35:82:75:47:a0:ab:8a:19:a5:f0:45:9f:25:87:
         ca:8d:c3:c4:e1:41:f4:6b:70:22:fc:8e:6d:8e:a6:a6:f8:23:
         89:c0:1c:e7:49:d7:9e:3a:e1:6f:f4:7d:26:99:08:0e:14:9f:
         44:fb:d7:85:a0:be:cd:6b:9f:52:13:b0:77:1a:d5:55:08:36:
         03:21:7e:91:13:7e:3c:f1:a2:18:14:75:ff:80:cb:75:0a:fd:
         21:5d:5a:80:5e:a1:f6:ba:ea:13:51:d3:29:6f:0b:14:16:de:
         60:6a:02:54:72:3d:b3:e8:9f:4f:08:8d:29:8b:e4:a9:c3:a9:
         08:be:8a:77:6c:8e:2f:85:3a:c4:40:92:78:6e:ed:dd:84:0c:
         a0:e3:24:c8:7f:0c:d3:ee:63:dc:37:96:62:d8:96:eb:d1:10:
         f0:1d:37:c6:6a:b5:0c:f6:82:07:05:9c:4d:d3:88:77:96:79:
         e7:99:34:28:14:df:0d:d9:fb:c5:b9:bd:58:8c:c4:96:8e:6f:
         ed:47:44:c9:86:6c:c2:77:6a:c3:70:a7:76:8f:cf:38:25:16:
         44:25:ed:d3:a4:61:fc:dc:11:cc:0f:cb:9b:13:3d:7c:39:37:
         b7:8a:66:74:f7:14:a9:8c:84:70:42:d0:c2:f6:43:8b:7c:5e:
         cd:f6:f8:fb
-----BEGIN CERTIFICATE-----
MIIDmDCCAoACAQcwDQYJKoZIhvcNAQEFBQAwgZYxCzAJBgNVBAYTAkNBMQ8wDQYD
VQQIDAZRdWViZWMxEzARBgNVBAcMClNoZXJicm9va2UxITAfBgNVBAoMGFVuaXZl
cnNpdGUgZGUgU2hlcmJyb29rZTENMAsGA1UECwwER0VHSTERMA8GA1UEAwwIYXV0
b3JpdGUxHDAaBgkqhkiG9w0BCQEWDWF1dG9yaXRlQGdlZ2kwHhcNMjIwMTE2MTYw
NDE3WhcNMjMwMTE2MTYwNDE3WjCBjDELMAkGA1UEBhMCQ0ExDzANBgNVBAgMBlF1
ZWJlYzEhMB8GA1UECgwYVW5pdmVyc2l0ZSBkZSBTaGVyYnJvb2tlMQ0wCwYDVQQL
DARHRUdJMRIwEAYDVQQDDAlsb2NhbGhvc3QxJjAkBgkqhkiG9w0BCQEWF2JlbGoy
NDM0QHVzaGVyYnJvb2tlLmNhMIIBIjANBgkqhkiG9w0BAQEFAAOCAQ8AMIIBCgKC
AQEAmu0UStuOaNOm5IFDs682sWlvIbHXVgh5ZQbSPD64AdSxNMm2z0f4FrNRCEmP
l8suB//Z4yfBj1ZhPFeunfJgjqIZ5R8lUwiEi3P8yWzydTBmJxDoJhcqkc6pMib4
rfRTotZ0rQcYLoqzwAT2YkrcF65H8zd3ugFpQ/w9wm6ZyogTpkJ9NzRacYX0zLIl
J8Y1tZwJ+BBMHyJdwc5ybi/hvZvk7jr8uaxQ0ven0Jm5XhFwWcmsnWhGBFsF/xuN
4jwM4r4EVejM4cOz5yXoIH8r0SsX4UnpkTBj2uBsNY40pV4taLlF17i2ZHbKf8wy
7FUl8kShpR8Wx6kwl10KrbD0zQIDAQABMA0GCSqGSIb3DQEBBQUAA4IBAQB5sh4K
NYJ1R6Crihml8EWfJYfKjcPE4UH0a3Ai/I5tjqam+COJwBznSdeeOuFv9H0mmQgO
FJ9E+9eFoL7Na59SE7B3GtVVCDYDIX6RE3488aIYFHX/gMt1Cv0hXVqAXqH2uuoT
UdMpbwsUFt5gagJUcj2z6J9PCI0pi+Spw6kIvop3bI4vhTrEQJJ4bu3dhAyg4yTI
fwzT7mPcN5Zi2Jbr0RDwHTfGarUM9oIHBZxN04h3lnnnmTQoFN8N2fvFub1YjMSW
jm/tR0TJhmzCd2rDcKd2j884JRZEJe3TpGH83BHMD8ubEz18OTe3imZ09xSpjIRw
QtDC9kOLfF7N9vj7
-----END CERTIFICATE-----
