Certificate:
    Data:
        Version: 1 (0x0)
        Serial Number: 9 (0x9)
    Signature Algorithm: sha1WithRSAEncryption
        Issuer: C=CA, ST=Quebec, L=Sherbrooke, O=Universite de Sherbrooke, OU=GEGI, CN=autorite/emailAddress=autorite@gegi
        Validity
            Not Before: Jan 16 17:43:24 2022 GMT
            Not After : Jan 16 17:43:24 2023 GMT
        Subject: C=CA, ST=Quebec, O=Universite de Sherbrooke, OU=GEGI, CN=127.0.0.1/emailAddress=belj2434@usherbrooke.ca
        Subject Public Key Info:
            Public Key Algorithm: rsaEncryption
                Public-Key: (2048 bit)
                Modulus:
                    00:c9:81:43:93:ae:6e:d9:16:0f:bc:27:ca:4e:77:
                    25:f2:50:77:e0:1c:09:32:6d:c2:9b:56:d2:f8:04:
                    f3:1a:16:d9:0b:54:89:a5:0c:28:44:9f:30:1a:44:
                    1e:df:be:e1:19:1d:ba:a9:02:d4:9d:c7:70:ff:75:
                    4d:eb:88:6f:8c:ce:93:78:54:22:bf:9e:a1:10:33:
                    40:9e:bd:4b:3f:43:f2:e2:fb:f1:46:23:a2:8c:07:
                    71:40:16:8b:cf:31:35:81:a1:08:5d:64:6d:00:37:
                    f7:c8:9a:c1:4c:49:22:e2:65:1a:88:bb:a6:9f:43:
                    e0:63:96:09:8f:43:5c:1d:ac:e7:23:0d:8f:55:cc:
                    f6:02:75:07:4b:57:e0:7a:d7:cb:a4:f8:10:f0:c5:
                    42:60:19:a7:96:36:c0:ad:2b:75:60:02:9d:ad:6b:
                    52:32:7c:67:d0:ad:75:8b:06:0d:4b:af:d2:af:36:
                    80:8f:d0:1f:40:3e:fe:fb:dd:e0:fb:59:7a:23:0d:
                    bd:dc:17:72:d4:b3:73:7f:38:59:3b:50:7b:99:88:
                    e6:13:42:d0:78:22:b0:3e:bf:a5:c0:6f:a0:82:95:
                    37:05:f9:d5:c8:bb:2b:2e:c9:28:71:39:50:a3:c8:
                    6a:ad:d2:4e:09:6d:84:8c:aa:27:3c:c9:48:20:bf:
                    4c:21
                Exponent: 65537 (0x10001)
    Signature Algorithm: sha1WithRSAEncryption
         c9:ff:b6:33:3b:3b:d0:26:53:ea:c1:e4:e6:91:6c:02:89:5d:
         fd:7d:2c:1a:16:0b:99:c4:72:34:0b:ad:48:5d:f6:9d:01:51:
         76:43:cf:05:17:c2:85:76:65:eb:f3:f4:12:7b:2b:26:51:ce:
         8e:90:cb:1c:63:27:6e:eb:ab:83:31:2e:01:89:5d:b2:e6:33:
         c9:43:9d:04:b9:b6:03:99:7e:89:4e:dc:13:b5:bc:c1:ba:5e:
         27:27:6b:54:5a:1d:35:75:0f:4f:79:3b:23:ba:f9:69:e3:58:
         e2:5b:9f:6c:b3:ae:46:ad:13:c5:ab:b8:7e:4f:fe:90:32:4a:
         e0:24:f1:4a:b8:0c:16:2b:b8:33:a6:79:75:60:26:2a:f6:60:
         7c:46:84:4c:b2:01:5e:76:68:cc:72:63:8c:e3:9b:dc:20:da:
         28:1b:93:5c:1b:d7:fe:67:ab:98:ea:05:05:f5:f9:96:90:f2:
         1c:62:70:6c:ed:c0:eb:cc:b5:f6:4b:0e:d0:07:0a:41:76:04:
         30:a5:87:19:9d:5f:7e:18:11:f7:b3:fd:a5:54:ea:73:26:8e:
         00:86:12:24:a2:86:08:96:5c:b0:72:92:34:50:b9:c2:4a:d5:
         82:25:f8:5e:10:c9:13:62:93:93:f2:30:82:04:e3:d0:c2:2a:
         3b:9b:09:56
-----BEGIN CERTIFICATE-----
MIIDmDCCAoACAQkwDQYJKoZIhvcNAQEFBQAwgZYxCzAJBgNVBAYTAkNBMQ8wDQYD
VQQIDAZRdWViZWMxEzARBgNVBAcMClNoZXJicm9va2UxITAfBgNVBAoMGFVuaXZl
cnNpdGUgZGUgU2hlcmJyb29rZTENMAsGA1UECwwER0VHSTERMA8GA1UEAwwIYXV0
b3JpdGUxHDAaBgkqhkiG9w0BCQEWDWF1dG9yaXRlQGdlZ2kwHhcNMjIwMTE2MTc0
MzI0WhcNMjMwMTE2MTc0MzI0WjCBjDELMAkGA1UEBhMCQ0ExDzANBgNVBAgMBlF1
ZWJlYzEhMB8GA1UECgwYVW5pdmVyc2l0ZSBkZSBTaGVyYnJvb2tlMQ0wCwYDVQQL
DARHRUdJMRIwEAYDVQQDDAkxMjcuMC4wLjExJjAkBgkqhkiG9w0BCQEWF2JlbGoy
NDM0QHVzaGVyYnJvb2tlLmNhMIIBIjANBgkqhkiG9w0BAQEFAAOCAQ8AMIIBCgKC
AQEAyYFDk65u2RYPvCfKTncl8lB34BwJMm3Cm1bS+ATzGhbZC1SJpQwoRJ8wGkQe
377hGR26qQLUncdw/3VN64hvjM6TeFQiv56hEDNAnr1LP0Py4vvxRiOijAdxQBaL
zzE1gaEIXWRtADf3yJrBTEki4mUaiLumn0PgY5YJj0NcHaznIw2PVcz2AnUHS1fg
etfLpPgQ8MVCYBmnljbArSt1YAKdrWtSMnxn0K11iwYNS6/SrzaAj9AfQD7++93g
+1l6Iw293Bdy1LNzfzhZO1B7mYjmE0LQeCKwPr+lwG+ggpU3BfnVyLsrLskocTlQ
o8hqrdJOCW2EjKonPMlIIL9MIQIDAQABMA0GCSqGSIb3DQEBBQUAA4IBAQDJ/7Yz
OzvQJlPqweTmkWwCiV39fSwaFguZxHI0C61IXfadAVF2Q88FF8KFdmXr8/QSeysm
Uc6OkMscYydu66uDMS4BiV2y5jPJQ50EubYDmX6JTtwTtbzBul4nJ2tUWh01dQ9P
eTsjuvlp41jiW59ss65GrRPFq7h+T/6QMkrgJPFKuAwWK7gzpnl1YCYq9mB8RoRM
sgFedmjMcmOM45vcINooG5NcG9f+Z6uY6gUF9fmWkPIcYnBs7cDrzLX2Sw7QBwpB
dgQwpYcZnV9+GBH3s/2lVOpzJo4AhhIkooYIllywcpI0ULnCStWCJfheEMkTYpOT
8jCCBOPQwio7mwlW
-----END CERTIFICATE-----
