Certificate:
    Data:
        Version: 1 (0x0)
        Serial Number: 10 (0xa)
    Signature Algorithm: sha1WithRSAEncryption
        Issuer: C=CA, ST=Quebec, L=Sherbrooke, O=Universite de Sherbrooke, OU=GEGI, CN=autorite/emailAddress=autorite@gegi
        Validity
            Not Before: Jan 16 17:45:51 2022 GMT
            Not After : Jan 16 17:45:51 2023 GMT
        Subject: C=CA, ST=Quebec, O=Universite de Sherbrooke, OU=GEGI, CN=127.0.0.1/emailAddress=belj2434@usherbrooke.ca
        Subject Public Key Info:
            Public Key Algorithm: rsaEncryption
                Public-Key: (2048 bit)
                Modulus:
                    00:cb:d0:b6:d1:4a:01:36:8c:da:e8:ea:2d:5b:92:
                    a4:78:37:6d:8b:75:08:95:40:b9:25:ba:e4:b5:71:
                    e0:d0:b8:2e:a8:d6:b3:a0:6c:48:00:24:e9:57:d9:
                    73:d6:26:91:78:dd:6a:42:d6:de:13:79:00:de:58:
                    e7:95:4d:c4:c9:b1:f5:75:25:b2:a8:cf:5a:27:25:
                    9a:18:5a:91:21:33:2f:de:36:51:e7:65:1e:4f:de:
                    9d:5a:2b:57:c7:97:2b:9a:d5:d4:9a:c8:43:d0:77:
                    8b:98:34:b3:8d:98:51:ce:44:c0:e5:a7:61:aa:a6:
                    27:6b:5b:7a:d4:6c:64:f9:ca:98:4b:d1:7d:e7:03:
                    61:43:57:79:bc:c0:de:ca:d0:b8:a7:d3:88:36:26:
                    12:87:12:e3:0c:0b:bf:90:44:d9:f3:ad:f9:94:67:
                    06:a6:33:8b:94:26:35:9f:74:1c:9d:6d:ca:70:c9:
                    1f:60:ce:6c:20:fe:33:bf:14:8c:ab:07:89:be:29:
                    61:8f:3a:12:6b:51:f2:d2:1a:18:eb:12:67:da:77:
                    3d:cd:b1:9e:6f:86:98:3a:c8:96:53:96:d2:e3:1a:
                    32:ee:77:31:f1:39:5d:b5:34:65:d6:67:1a:a8:01:
                    98:e4:e2:13:3b:bb:1a:8a:97:df:7c:0d:f3:ab:5b:
                    13:4d
                Exponent: 65537 (0x10001)
    Signature Algorithm: sha1WithRSAEncryption
         e2:95:a9:19:5b:29:fe:74:c6:2a:81:e4:20:47:22:5f:33:83:
         7a:a2:7c:80:eb:33:7e:68:4b:49:c2:43:47:d8:ad:4a:21:e4:
         eb:01:97:7f:5b:e2:46:8a:14:e7:68:3b:6c:ec:7c:ef:1b:c4:
         9c:6d:b1:23:1f:9d:38:58:e0:47:f0:05:d9:31:2a:39:38:03:
         6e:54:10:f9:87:b0:8b:1f:43:35:95:35:5f:e8:78:65:19:b3:
         3b:93:e8:8b:7d:ab:ad:05:76:cb:84:53:ad:d6:ae:f4:73:d8:
         2c:b2:2c:03:a2:86:4e:b7:99:85:3f:24:37:cb:4a:fa:4c:2a:
         2a:24:ea:7c:f7:b6:87:7a:a6:85:d6:04:01:57:eb:6a:bf:04:
         ed:6a:2e:94:05:65:4f:4d:5c:12:f7:bf:d8:50:28:19:ab:3a:
         62:be:67:a2:3e:55:1a:14:7b:0a:fb:53:00:07:11:ac:56:02:
         54:bd:21:0c:25:6f:59:ab:8e:2c:d5:f7:16:c3:75:20:f1:f6:
         3d:c3:21:b2:4c:7d:69:2a:b3:35:be:d8:a1:62:a1:08:96:24:
         36:30:40:27:a6:6b:6d:b7:c8:cb:f3:99:09:4d:68:9b:68:c1:
         1e:e4:f7:c2:21:5d:63:ed:1a:a1:7f:ab:70:bb:2e:ef:2b:21:
         0c:d2:81:88
-----BEGIN CERTIFICATE-----
MIIDmDCCAoACAQowDQYJKoZIhvcNAQEFBQAwgZYxCzAJBgNVBAYTAkNBMQ8wDQYD
VQQIDAZRdWViZWMxEzARBgNVBAcMClNoZXJicm9va2UxITAfBgNVBAoMGFVuaXZl
cnNpdGUgZGUgU2hlcmJyb29rZTENMAsGA1UECwwER0VHSTERMA8GA1UEAwwIYXV0
b3JpdGUxHDAaBgkqhkiG9w0BCQEWDWF1dG9yaXRlQGdlZ2kwHhcNMjIwMTE2MTc0
NTUxWhcNMjMwMTE2MTc0NTUxWjCBjDELMAkGA1UEBhMCQ0ExDzANBgNVBAgMBlF1
ZWJlYzEhMB8GA1UECgwYVW5pdmVyc2l0ZSBkZSBTaGVyYnJvb2tlMQ0wCwYDVQQL
DARHRUdJMRIwEAYDVQQDDAkxMjcuMC4wLjExJjAkBgkqhkiG9w0BCQEWF2JlbGoy
NDM0QHVzaGVyYnJvb2tlLmNhMIIBIjANBgkqhkiG9w0BAQEFAAOCAQ8AMIIBCgKC
AQEAy9C20UoBNoza6OotW5KkeDdti3UIlUC5JbrktXHg0LguqNazoGxIACTpV9lz
1iaReN1qQtbeE3kA3ljnlU3EybH1dSWyqM9aJyWaGFqRITMv3jZR52UeT96dWitX
x5crmtXUmshD0HeLmDSzjZhRzkTA5adhqqYna1t61Gxk+cqYS9F95wNhQ1d5vMDe
ytC4p9OINiYShxLjDAu/kETZ8635lGcGpjOLlCY1n3QcnW3KcMkfYM5sIP4zvxSM
qweJvilhjzoSa1Hy0hoY6xJn2nc9zbGeb4aYOsiWU5bS4xoy7ncx8TldtTRl1mca
qAGY5OITO7saipfffA3zq1sTTQIDAQABMA0GCSqGSIb3DQEBBQUAA4IBAQDilakZ
Wyn+dMYqgeQgRyJfM4N6onyA6zN+aEtJwkNH2K1KIeTrAZd/W+JGihTnaDts7Hzv
G8ScbbEjH504WOBH8AXZMSo5OANuVBD5h7CLH0M1lTVf6HhlGbM7k+iLfautBXbL
hFOt1q70c9gssiwDooZOt5mFPyQ3y0r6TCoqJOp897aHeqaF1gQBV+tqvwTtai6U
BWVPTVwS97/YUCgZqzpivmeiPlUaFHsK+1MABxGsVgJUvSEMJW9Zq44s1fcWw3Ug
8fY9wyGyTH1pKrM1vtihYqEIliQ2MEAnpmttt8jL85kJTWibaMEe5PfCIV1j7Rqh
f6twuy7vKyEM0oGI
-----END CERTIFICATE-----
