Certificate:
    Data:
        Version: 1 (0x0)
        Serial Number: 8 (0x8)
    Signature Algorithm: sha1WithRSAEncryption
        Issuer: C=CA, ST=Quebec, L=Sherbrooke, O=Universite de Sherbrooke, OU=GEGI, CN=autorite/emailAddress=autorite@gegi
        Validity
            Not Before: Jan 16 16:06:46 2022 GMT
            Not After : Jan 16 16:06:46 2023 GMT
        Subject: C=CA, ST=Quebec, O=Universite de Sherbrooke, OU=GEGI, CN=localhost/emailAddress=belj2434@usherbrooke.ca
        Subject Public Key Info:
            Public Key Algorithm: rsaEncryption
                Public-Key: (2048 bit)
                Modulus:
                    00:c2:ce:cf:07:d0:71:3f:d4:74:c2:bd:d4:6d:53:
                    1b:9e:11:be:b2:85:48:57:b5:78:00:5b:11:c3:51:
                    19:36:f1:00:c1:ec:20:0c:fa:7f:48:6d:7f:02:47:
                    19:ea:48:e5:ee:0b:2f:16:6d:25:85:23:98:78:a1:
                    c3:ea:e3:8e:2a:7c:da:d9:ed:fd:3b:39:49:57:cb:
                    63:f2:45:47:97:2e:74:5d:61:60:6f:74:2c:80:28:
                    df:78:f1:94:5e:36:f4:37:be:c5:91:7a:a2:1a:80:
                    bc:84:76:43:33:30:c5:dd:27:c2:b6:3d:34:1c:4a:
                    fb:bb:9b:00:11:41:62:7f:fe:bf:ae:be:9f:d8:f8:
                    9a:e3:5b:32:a5:1b:8b:85:3c:34:c6:c5:81:b6:12:
                    a1:d0:e7:cb:f3:f8:76:69:51:07:68:8f:3e:fc:a5:
                    5f:1b:b1:ac:ea:f8:77:fa:54:e5:9a:15:4f:b7:88:
                    dc:3f:82:67:07:75:6a:e6:28:47:61:99:a9:5d:50:
                    fb:1b:7d:cb:02:65:66:53:d8:a0:da:8a:85:0f:4a:
                    81:0d:62:81:e7:01:86:1d:cf:2e:83:a1:fd:0f:16:
                    27:3e:7b:0a:e1:d5:42:f3:2c:bf:51:c1:c3:d0:fd:
                    9c:bc:1a:a1:12:7a:90:bb:88:65:ff:33:42:6b:88:
                    44:0b
                Exponent: 65537 (0x10001)
    Signature Algorithm: sha1WithRSAEncryption
         36:dc:10:c9:24:2a:0b:3c:b6:52:4a:fb:7b:52:16:48:18:3a:
         a1:fa:06:cb:a0:fe:c3:73:50:29:47:ad:cf:bc:3e:03:7b:55:
         cc:2a:ab:95:9e:a4:15:ec:0d:4e:58:7f:82:bb:ad:c7:93:96:
         31:54:07:95:55:70:e5:72:58:4c:0d:54:e9:b0:d7:38:d8:cc:
         e2:cb:8f:f8:79:23:2f:a2:1c:36:b0:1c:75:51:6e:80:0f:02:
         22:0f:36:ec:1a:d7:87:c1:02:c9:91:ed:9e:0d:ce:21:a7:c5:
         e0:4c:18:d1:2c:7e:6e:72:b6:b9:45:77:cc:f6:73:de:3c:c0:
         85:6f:df:a0:69:7b:88:22:50:0f:4e:a9:c8:ce:ba:f8:73:9c:
         75:47:cc:85:e1:0c:74:fc:41:66:70:d5:9d:d8:1a:e6:c5:51:
         82:92:f2:b2:ce:cd:ad:b9:11:16:d0:90:f4:7b:a6:86:ea:61:
         b7:71:b9:db:8b:37:1a:fe:5a:d9:64:71:4d:58:1a:33:02:fb:
         35:2c:d8:0e:e8:ea:94:42:7f:5a:ea:77:12:f4:fc:1c:52:12:
         7d:3c:f9:3c:db:64:eb:f0:83:cd:f1:7e:0c:db:0e:0d:b0:23:
         89:8f:09:f5:f8:ed:5c:15:32:15:e8:43:c9:12:8b:b7:92:f5:
         d9:87:e3:5b
-----BEGIN CERTIFICATE-----
MIIDmDCCAoACAQgwDQYJKoZIhvcNAQEFBQAwgZYxCzAJBgNVBAYTAkNBMQ8wDQYD
VQQIDAZRdWViZWMxEzARBgNVBAcMClNoZXJicm9va2UxITAfBgNVBAoMGFVuaXZl
cnNpdGUgZGUgU2hlcmJyb29rZTENMAsGA1UECwwER0VHSTERMA8GA1UEAwwIYXV0
b3JpdGUxHDAaBgkqhkiG9w0BCQEWDWF1dG9yaXRlQGdlZ2kwHhcNMjIwMTE2MTYw
NjQ2WhcNMjMwMTE2MTYwNjQ2WjCBjDELMAkGA1UEBhMCQ0ExDzANBgNVBAgMBlF1
ZWJlYzEhMB8GA1UECgwYVW5pdmVyc2l0ZSBkZSBTaGVyYnJvb2tlMQ0wCwYDVQQL
DARHRUdJMRIwEAYDVQQDDAlsb2NhbGhvc3QxJjAkBgkqhkiG9w0BCQEWF2JlbGoy
NDM0QHVzaGVyYnJvb2tlLmNhMIIBIjANBgkqhkiG9w0BAQEFAAOCAQ8AMIIBCgKC
AQEAws7PB9BxP9R0wr3UbVMbnhG+soVIV7V4AFsRw1EZNvEAwewgDPp/SG1/AkcZ
6kjl7gsvFm0lhSOYeKHD6uOOKnza2e39OzlJV8tj8kVHly50XWFgb3QsgCjfePGU
Xjb0N77FkXqiGoC8hHZDMzDF3SfCtj00HEr7u5sAEUFif/6/rr6f2Pia41sypRuL
hTw0xsWBthKh0OfL8/h2aVEHaI8+/KVfG7Gs6vh3+lTlmhVPt4jcP4JnB3Vq5ihH
YZmpXVD7G33LAmVmU9ig2oqFD0qBDWKB5wGGHc8ug6H9DxYnPnsK4dVC8yy/UcHD
0P2cvBqhEnqQu4hl/zNCa4hECwIDAQABMA0GCSqGSIb3DQEBBQUAA4IBAQA23BDJ
JCoLPLZSSvt7UhZIGDqh+gbLoP7Dc1ApR63PvD4De1XMKquVnqQV7A1OWH+Cu63H
k5YxVAeVVXDlclhMDVTpsNc42Mziy4/4eSMvohw2sBx1UW6ADwIiDzbsGteHwQLJ
ke2eDc4hp8XgTBjRLH5ucra5RXfM9nPePMCFb9+gaXuIIlAPTqnIzrr4c5x1R8yF
4Qx0/EFmcNWd2BrmxVGCkvKyzs2tuREW0JD0e6aG6mG3cbnbizca/lrZZHFNWBoz
Avs1LNgO6OqUQn9a6ncS9PwcUhJ9PPk822Tr8IPN8X4M2w4NsCOJjwn1+O1cFTIV
6EPJEou3kvXZh+Nb
-----END CERTIFICATE-----
